; Function Attrs: nounwind uwtable
define void @ssl_set_sig_mask(ptr noundef captures(none) %0, ptr noundef %1, i32 noundef %2) local_unnamed_addr #2 {
  %4 = getelementptr inbounds nuw i8, ptr %1, i64 2176
  %5 = load ptr, ptr %4, align 8, !tbaa !127
  %6 = getelementptr inbounds nuw i8, ptr %5, i64 28
  %7 = load i32, ptr %6, align 4, !tbaa !128
  %8 = lshr i32 %7, 16
  %9 = and i32 %8, 3
  switch i32 %9, label %default.unreachable [
    i32 3, label %.lr.ph
    i32 1, label %10
    i32 2, label %11
    i32 0, label %12
  ]

10:                                               ; preds = %3
  br label %.lr.ph

11:                                               ; preds = %3
  br label %.lr.ph

default.unreachable:                              ; preds = %3
  unreachable

12:                                               ; preds = %3
  %13 = getelementptr inbounds nuw i8, ptr %1, i64 120
  %14 = load i32, ptr %13, align 8, !tbaa !151
  %15 = icmp eq i32 %14, 1
  br i1 %15, label %16, label %21

16:                                               ; preds = %12
  %17 = getelementptr inbounds nuw i8, ptr %5, i64 80
  %18 = load ptr, ptr %17, align 8, !tbaa !207
  %.not.i = icmp eq ptr %18, null
  br i1 %.not.i, label %21, label %19

19:                                               ; preds = %16
  %20 = getelementptr inbounds nuw i8, ptr %5, i64 88
  br label %tls12_get_psigalgs.exit

21:                                               ; preds = %16, %12
  %22 = getelementptr inbounds nuw i8, ptr %5, i64 64
  %23 = load ptr, ptr %22, align 8, !tbaa !209
  %.not19.i = icmp eq ptr %23, null
  br i1 %.not19.i, label %26, label %24

24:                                               ; preds = %21
  %25 = getelementptr inbounds nuw i8, ptr %5, i64 72
  br label %tls12_get_psigalgs.exit

26:                                               ; preds = %21
  %27 = getelementptr inbounds nuw i8, ptr %1, i64 8
  %28 = load ptr, ptr %27, align 8, !tbaa !126
  %29 = getelementptr inbounds nuw i8, ptr %28, i64 1648
  %30 = load ptr, ptr %29, align 8, !tbaa !193
  %31 = getelementptr inbounds nuw i8, ptr %28, i64 1632
  br label %tls12_get_psigalgs.exit

tls12_get_psigalgs.exit:                          ; preds = %19, %24, %26
  %.124 = phi ptr [ %30, %26 ], [ %23, %24 ], [ %18, %19 ]
  %.0.i.in = phi ptr [ %31, %26 ], [ %25, %24 ], [ %20, %19 ]
  %.0.i = load i64, ptr %.0.i.in, align 8, !tbaa !105
  %.not30 = icmp eq i64 %.0.i, 0
  br i1 %.not30, label %._crit_edge, label %.lr.ph

.lr.ph:                                           ; preds = %3, %10, %11, %tls12_get_psigalgs.exit
  %.0.i37 = phi i64 [ %.0.i, %tls12_get_psigalgs.exit ], [ 2, %3 ], [ 1, %10 ], [ 1, %11 ]
  %.12436 = phi ptr [ %.124, %tls12_get_psigalgs.exit ], [ @suiteb_sigalgs, %3 ], [ @suiteb_sigalgs, %10 ], [ getelementptr inbounds nuw (i8, ptr @suiteb_sigalgs, i64 2), %11 ]
  %32 = getelementptr i8, ptr %1, i64 8
  %33 = load ptr, ptr %32, align 8, !tbaa !126
  %34 = getelementptr inbounds nuw i8, ptr %33, i64 1632
  %35 = load i64, ptr %34, align 8, !tbaa !194
  %36 = icmp eq i64 %35, 0
  br i1 %36, label %._crit_edge, label %.lr.ph.split

.lr.ph.split:                                     ; preds = %.lr.ph, %tls1_lookup_sigalg.exit.thread
  %.029 = phi i64 [ %66, %tls1_lookup_sigalg.exit.thread ], [ 0, %.lr.ph ]
  %.01728 = phi i32 [ %.1, %tls1_lookup_sigalg.exit.thread ], [ 11, %.lr.ph ]
  %.02327 = phi ptr [ %67, %tls1_lookup_sigalg.exit.thread ], [ %.12436, %.lr.ph ]
  %37 = load i16, ptr %.02327, align 2, !tbaa !93
  %.val = load ptr, ptr %32, align 8, !tbaa !126
  %38 = getelementptr inbounds nuw i8, ptr %.val, i64 1632
  %39 = load i64, ptr %38, align 8, !tbaa !194
  %.not4.i = icmp eq i64 %39, 0
  br i1 %.not4.i, label %tls1_lookup_sigalg.exit.thread, label %.lr.ph.preheader.i

.lr.ph.preheader.i:                               ; preds = %.lr.ph.split
  %40 = getelementptr inbounds nuw i8, ptr %.val, i64 1640
  %41 = load ptr, ptr %40, align 8, !tbaa !192
  br label %.lr.ph.i

.lr.ph.i:                                         ; preds = %48, %.lr.ph.preheader.i
  %.03.i = phi ptr [ %49, %48 ], [ %41, %.lr.ph.preheader.i ]
  %.092.i = phi i64 [ %50, %48 ], [ 0, %.lr.ph.preheader.i ]
  %42 = getelementptr inbounds nuw i8, ptr %.03.i, i64 8
  %43 = load i16, ptr %42, align 8, !tbaa !187
  %44 = icmp eq i16 %43, %37
  br i1 %44, label %45, label %48

45:                                               ; preds = %.lr.ph.i
  %46 = getelementptr inbounds nuw i8, ptr %.03.i, i64 36
  %47 = load i32, ptr %46, align 4, !tbaa !182
  %.not.i21 = icmp eq i32 %47, 0
  br i1 %.not.i21, label %tls1_lookup_sigalg.exit.thread, label %tls1_lookup_sigalg.exit

48:                                               ; preds = %.lr.ph.i
  %49 = getelementptr inbounds nuw i8, ptr %.03.i, i64 40
  %50 = add nuw i64 %.092.i, 1
  %exitcond.not.i = icmp eq i64 %50, %39
  br i1 %exitcond.not.i, label %tls1_lookup_sigalg.exit.thread, label %.lr.ph.i, !llvm.loop !206

tls1_lookup_sigalg.exit:                          ; preds = %45
  %51 = getelementptr inbounds nuw i8, ptr %.03.i, i64 24
  %52 = load i32, ptr %51, align 8, !tbaa !188
  %53 = sext i32 %52 to i64
  %54 = tail call ptr @ssl_cert_lookup_by_idx(i64 noundef %53, ptr noundef %.val) #14
  %55 = icmp eq ptr %54, null
  br i1 %55, label %tls1_lookup_sigalg.exit.thread, label %56

56:                                               ; preds = %tls1_lookup_sigalg.exit
  %57 = getelementptr inbounds nuw i8, ptr %54, i64 4
  %58 = load i32, ptr %57, align 4, !tbaa !117
  %59 = and i32 %58, %.01728
  %.not = icmp eq i32 %59, 0
  br i1 %.not, label %tls1_lookup_sigalg.exit.thread, label %60

60:                                               ; preds = %56
  %61 = tail call fastcc i32 @tls12_sigalg_allowed(ptr noundef %1, i32 noundef %2, ptr noundef nonnull %.03.i)
  %.not20 = icmp eq i32 %61, 0
  br i1 %.not20, label %tls1_lookup_sigalg.exit.thread, label %62

62:                                               ; preds = %60
  %63 = load i32, ptr %57, align 4, !tbaa !117
  %64 = xor i32 %63, -1
  %65 = and i32 %.01728, %64
  br label %tls1_lookup_sigalg.exit.thread

tls1_lookup_sigalg.exit.thread:                   ; preds = %48, %45, %.lr.ph.split, %56, %60, %62, %tls1_lookup_sigalg.exit
  %.1 = phi i32 [ %.01728, %tls1_lookup_sigalg.exit ], [ %65, %62 ], [ %.01728, %60 ], [ %.01728, %56 ], [ %.01728, %.lr.ph.split ], [ %.01728, %45 ], [ %.01728, %48 ]
  %66 = add nuw i64 %.029, 1
  %67 = getelementptr inbounds nuw i8, ptr %.02327, i64 2
  %exitcond.not = icmp eq i64 %66, %.0.i37
  br i1 %exitcond.not, label %._crit_edge, label %.lr.ph.split, !llvm.loop !222

._crit_edge:                                      ; preds = %tls1_lookup_sigalg.exit.thread, %.lr.ph, %tls12_get_psigalgs.exit
  %.017.lcssa = phi i32 [ 11, %tls12_get_psigalgs.exit ], [ 11, %.lr.ph ], [ %.1, %tls1_lookup_sigalg.exit.thread ]
  %68 = load i32, ptr %0, align 4, !tbaa !135
  %69 = or i32 %68, %.017.lcssa
  store i32 %69, ptr %0, align 4, !tbaa !135
  ret void
}